; Function Attrs: mustprogress uwtable
define internal fastcc void @_ZN12_GLOBAL__N_134shared_ptr_with_addressof_operatorINS_26TypeForHolderWithAddressOfEEC2EPS1_(ptr nocapture noundef nonnull writeonly align 8 dereferenceable(16) %0, ptr noundef %1) unnamed_addr #1 align 2 personality ptr @__gxx_personality_v0 {
  store ptr %1, ptr %0, align 8
  %3 = getelementptr inbounds i8, ptr %0, i64 8
  store ptr null, ptr %3, align 8
  %4 = invoke noalias noundef nonnull dereferenceable(24) ptr @_Znwm(i64 noundef 24) #32
          to label %_ZNSt10shared_ptrIN12_GLOBAL__N_126TypeForHolderWithAddressOfEEC2IS1_vEEPT_.exit unwind label %5

5:                                                ; preds = %2
  %6 = landingpad { ptr, i32 }
          catch ptr null
  %7 = extractvalue { ptr, i32 } %6, 0
  %8 = tail call ptr @__cxa_begin_catch(ptr %7) #28
  %9 = icmp eq ptr %1, null
  br i1 %9, label %11, label %10

10:                                               ; preds = %5
  tail call fastcc void @_ZN12_GLOBAL__N_126TypeForHolderWithAddressOfD2Ev(ptr noundef nonnull align 4 dereferenceable(4) %1) #28
  tail call void @_ZdlPv(ptr noundef nonnull %1) #33
  br label %11

11:                                               ; preds = %10, %5
  invoke void @__cxa_rethrow() #31
          to label %18 unwind label %12

12:                                               ; preds = %11
  %13 = landingpad { ptr, i32 }
          cleanup
  invoke void @__cxa_end_catch()
          to label %14 unwind label %15

14:                                               ; preds = %12
  resume { ptr, i32 } %13

15:                                               ; preds = %12
  %16 = landingpad { ptr, i32 }
          catch ptr null
  %17 = extractvalue { ptr, i32 } %16, 0
  tail call void @__clang_call_terminate(ptr %17) #29
  unreachable

18:                                               ; preds = %11
  unreachable

_ZNSt10shared_ptrIN12_GLOBAL__N_126TypeForHolderWithAddressOfEEC2IS1_vEEPT_.exit: ; preds = %2
  %19 = getelementptr inbounds i8, ptr %4, i64 8
  store i32 1, ptr %19, align 8
  %20 = getelementptr inbounds i8, ptr %4, i64 12
  store i32 1, ptr %20, align 4
  store ptr getelementptr inbounds ({ [7 x ptr] }, ptr @_ZTVSt15_Sp_counted_ptrIPN12_GLOBAL__N_126TypeForHolderWithAddressOfELN9__gnu_cxx12_Lock_policyE2EE, i64 0, i32 0, i64 2), ptr %4, align 8
  %21 = getelementptr inbounds i8, ptr %4, i64 16
  store ptr %1, ptr %21, align 8
  store ptr %4, ptr %3, align 8
  ret void
}